; Function Attrs: nounwind uwtable
define internal noundef i32 @_combobox_idle_value_changed(ptr noundef %0) #0 {
  %2 = getelementptr inbounds nuw i8, ptr %0, i64 408
  %3 = load i32, ptr %2, align 8, !tbaa !106
  tail call fastcc void @_combobox_set(ptr noundef %0, i32 noundef %3, i32 noundef 0)
  br label %4

4:                                                ; preds = %4, %1
  %5 = tail call i32 @g_idle_remove_by_data(ptr noundef %0) #19
  %.not = icmp eq i32 %5, 0
  br i1 %.not, label %6, label %4

6:                                                ; preds = %4
  ret i32 0
}